; Function Attrs: mustprogress nofree norecurse nosync nounwind memory(read, argmem: readwrite, inaccessiblemem: none) uwtable
define internal void @_ZN2cv12cpu_baseline12_GLOBAL__N_118vlineSmooth5N14641ItNS_12_GLOBAL__N_113ufixedpoint32EEEvPKPKT0_S7_iPT_i(ptr noundef readonly captures(none) %0, ptr readnone captures(none) %1, i32 %2, ptr noundef writeonly captures(none) %3, i32 noundef %4) #17 {
  %6 = icmp sgt i32 %4, 0
  br i1 %6, label %.lr.ph, label %._crit_edge

.lr.ph:                                           ; preds = %5
  %7 = getelementptr inbounds nuw i8, ptr %0, i64 16
  %8 = load ptr, ptr %7, align 8, !tbaa !1818
  %9 = getelementptr inbounds nuw i8, ptr %0, i64 8
  %10 = load ptr, ptr %9, align 8, !tbaa !1818
  %11 = getelementptr inbounds nuw i8, ptr %0, i64 24
  %12 = load ptr, ptr %11, align 8, !tbaa !1818
  %13 = load ptr, ptr %0, align 8, !tbaa !1818
  %14 = getelementptr inbounds nuw i8, ptr %0, i64 32
  %15 = load ptr, ptr %14, align 8, !tbaa !1818
  %wide.trip.count = zext nneg i32 %4 to i64
  br label %16

16:                                               ; preds = %.lr.ph, %16
  %indvars.iv = phi i64 [ 0, %.lr.ph ], [ %indvars.iv.next, %16 ]
  %17 = getelementptr inbounds nuw i32, ptr %8, i64 %indvars.iv
  %18 = load i32, ptr %17, align 4, !tbaa !85
  %19 = zext i32 %18 to i64
  %20 = mul nuw nsw i64 %19, 6
  %21 = getelementptr inbounds nuw i32, ptr %10, i64 %indvars.iv
  %22 = load i32, ptr %21, align 4, !tbaa !85
  %23 = zext i32 %22 to i64
  %24 = getelementptr inbounds nuw i32, ptr %12, i64 %indvars.iv
  %25 = load i32, ptr %24, align 4, !tbaa !85
  %26 = zext i32 %25 to i64
  %27 = add nuw nsw i64 %26, %23
  %28 = shl nuw nsw i64 %27, 2
  %29 = getelementptr inbounds nuw i32, ptr %13, i64 %indvars.iv
  %30 = load i32, ptr %29, align 4, !tbaa !85
  %31 = zext i32 %30 to i64
  %32 = getelementptr inbounds nuw i32, ptr %15, i64 %indvars.iv
  %33 = load i32, ptr %32, align 4, !tbaa !85
  %34 = zext i32 %33 to i64
  %35 = add nuw nsw i64 %20, 524288
  %36 = add nuw nsw i64 %35, %28
  %37 = add nuw nsw i64 %36, %31
  %38 = add nuw nsw i64 %37, %34
  %39 = lshr i64 %38, 20
  %40 = trunc i64 %39 to i16
  %41 = getelementptr inbounds nuw i16, ptr %3, i64 %indvars.iv
  store i16 %40, ptr %41, align 2, !tbaa !400
  %indvars.iv.next = add nuw nsw i64 %indvars.iv, 1
  %exitcond.not = icmp eq i64 %indvars.iv.next, %wide.trip.count
  br i1 %exitcond.not, label %._crit_edge, label %16, !llvm.loop !1835

._crit_edge:                                      ; preds = %16, %5
  ret void
}